target datalayout = "e-m:e-p270:32:32-p271:32:32-p272:64:64-i64:64-i128:128-f80:128-n8:16:32:64-S128"
target triple = "x86_64-pc-linux-gnu"

%"struct.Luau::CodeGen::X64::RegisterX64" = type { i8 }
%"struct.Luau::CodeGen::X64::OperandX64" = type { i8, %"struct.Luau::CodeGen::X64::RegisterX64", %"struct.Luau::CodeGen::X64::RegisterX64", i8, i32 }
%"class.Luau::CodeGen::X64::IrCallWrapperX64" = type { ptr, ptr, i32, %"struct.std::array", i32, i32, i32, %"struct.Luau::CodeGen::X64::OperandX64", %"struct.std::array.0", %"struct.std::array.0" }
%"struct.std::array" = type { [6 x %"struct.Luau::CodeGen::X64::CallArgument"] }
%"struct.Luau::CodeGen::X64::CallArgument" = type <{ i8, [3 x i8], %"struct.Luau::CodeGen::X64::OperandX64", %"struct.Luau::CodeGen::IrOp", %"struct.Luau::CodeGen::X64::OperandX64", i8, [3 x i8] }>
%"struct.Luau::CodeGen::IrOp" = type { i32 }
%"struct.std::array.0" = type { [16 x i8] }

; Function Attrs: mustprogress nounwind uwtable
define linkonce_odr dso_local noundef nonnull align 1 dereferenceable(1) ptr @_ZNSt14__array_traitsIhLm16EE6_S_refERA16_Khm(ptr noundef nonnull align 1 dereferenceable(16) %0, i64 noundef %1) #3 comdat align 2 {
  %3 = alloca ptr, align 8
  %4 = alloca i64, align 8
  store ptr %0, ptr %3, align 8, !tbaa !36
  store i64 %1, ptr %4, align 8, !tbaa !83
  %5 = load ptr, ptr %3, align 8, !tbaa !36
  %6 = load i64, ptr %4, align 8, !tbaa !83
  %7 = getelementptr inbounds nuw [16 x i8], ptr %5, i64 0, i64 %6
  ret ptr %7
}

; Function Attrs: mustprogress nounwind uwtable
define linkonce_odr dso_local noundef nonnull align 1 dereferenceable(1) ptr @_ZNSt5arrayIhLm16EEixEm(ptr noundef nonnull align 1 dereferenceable(16) %0, i64 noundef %1) #3 comdat align 2 {
  %3 = alloca ptr, align 8
  %4 = alloca i64, align 8
  store ptr %0, ptr %3, align 8, !tbaa !34
  store i64 %1, ptr %4, align 8, !tbaa !83
  %5 = load ptr, ptr %3, align 8
  %6 = getelementptr inbounds nuw %"struct.std::array.0", ptr %5, i32 0, i32 0
  %7 = load i64, ptr %4, align 8, !tbaa !83
  %8 = call noundef nonnull align 1 dereferenceable(1) ptr @_ZNSt14__array_traitsIhLm16EE6_S_refERA16_Khm(ptr noundef nonnull align 1 dereferenceable(16) %6, i64 noundef %7) #10
  ret ptr %8
}

; Function Attrs: mustprogress uwtable
define dso_local void @_ZN4Luau7CodeGen3X6416IrCallWrapperX6417removeRegisterUseENS1_11RegisterX64E(ptr noundef nonnull align 8 dereferenceable(240) %0, i8 %1) #0 align 2 {
  %3 = alloca %"struct.Luau::CodeGen::X64::RegisterX64", align 1
  %4 = alloca ptr, align 8
  %5 = alloca %"struct.Luau::CodeGen::X64::RegisterX64", align 1
  %6 = alloca %"struct.Luau::CodeGen::X64::RegisterX64", align 1
  %7 = alloca %"struct.Luau::CodeGen::X64::RegisterX64", align 1
  %8 = getelementptr inbounds nuw %"struct.Luau::CodeGen::X64::RegisterX64", ptr %3, i32 0, i32 0
  store i8 %1, ptr %8, align 1
  store ptr %0, ptr %4, align 8, !tbaa !4
  %9 = load ptr, ptr %4, align 8
  %10 = load i8, ptr %3, align 1
  %11 = and i8 %10, 7
  %12 = icmp eq i8 %11, 5
  br i1 %12, label %13, label %35

13:                                               ; preds = %2
  %14 = getelementptr inbounds nuw %"class.Luau::CodeGen::X64::IrCallWrapperX64", ptr %9, i32 0, i32 9
  %15 = load i8, ptr %3, align 1
  %16 = lshr i8 %15, 3
  %17 = zext i8 %16 to i64
  %18 = call noundef nonnull align 1 dereferenceable(1) ptr @_ZNSt5arrayIhLm16EEixEm(ptr noundef nonnull align 1 dereferenceable(16) %14, i64 noundef %17) #10
  %19 = load i8, ptr %18, align 1, !tbaa !27
  %20 = add i8 %19, -1
  store i8 %20, ptr %18, align 1, !tbaa !27
  %21 = getelementptr inbounds nuw %"class.Luau::CodeGen::X64::IrCallWrapperX64", ptr %9, i32 0, i32 9
  %22 = load i8, ptr %3, align 1
  %23 = lshr i8 %22, 3
  %24 = zext i8 %23 to i64
  %25 = call noundef nonnull align 1 dereferenceable(1) ptr @_ZNSt5arrayIhLm16EEixEm(ptr noundef nonnull align 1 dereferenceable(16) %21, i64 noundef %24) #10
  %26 = load i8, ptr %25, align 1, !tbaa !27
  %27 = zext i8 %26 to i32
  %28 = icmp eq i32 %27, 0
  br i1 %28, label %29, label %34

29:                                               ; preds = %13
  %30 = getelementptr inbounds nuw %"class.Luau::CodeGen::X64::IrCallWrapperX64", ptr %9, i32 0, i32 0
  %31 = load ptr, ptr %30, align 8, !tbaa !90
  call void @llvm.memcpy.p0.p0.i64(ptr align 1 %5, ptr align 1 %3, i64 1, i1 false), !tbaa.struct !26
  %32 = getelementptr inbounds nuw %"struct.Luau::CodeGen::X64::RegisterX64", ptr %5, i32 0, i32 0
  %33 = load i8, ptr %32, align 1
  call void @_ZN4Luau7CodeGen3X6413IrRegAllocX647freeRegENS1_11RegisterX64E(ptr noundef nonnull align 8 dereferenceable(256) %31, i8 %33)
  br label %34

34:                                               ; preds = %29, %13
  br label %68

35:                                               ; preds = %2
  %36 = load i8, ptr %3, align 1
  %37 = and i8 %36, 7
  %38 = icmp ne i8 %37, 0
  br i1 %38, label %39, label %67

39:                                               ; preds = %35
  %40 = getelementptr inbounds nuw %"class.Luau::CodeGen::X64::IrCallWrapperX64", ptr %9, i32 0, i32 8
  %41 = load i8, ptr %3, align 1
  %42 = lshr i8 %41, 3
  %43 = zext i8 %42 to i64
  %44 = call noundef nonnull align 1 dereferenceable(1) ptr @_ZNSt5arrayIhLm16EEixEm(ptr noundef nonnull align 1 dereferenceable(16) %40, i64 noundef %43) #10
  %45 = load i8, ptr %44, align 1, !tbaa !27
  %46 = add i8 %45, -1
  store i8 %46, ptr %44, align 1, !tbaa !27
  %47 = getelementptr inbounds nuw %"class.Luau::CodeGen::X64::IrCallWrapperX64", ptr %9, i32 0, i32 8
  %48 = load i8, ptr %3, align 1
  %49 = lshr i8 %48, 3
  %50 = zext i8 %49 to i64
  %51 = call noundef nonnull align 1 dereferenceable(1) ptr @_ZNSt5arrayIhLm16EEixEm(ptr noundef nonnull align 1 dereferenceable(16) %47, i64 noundef %50) #10
  %52 = load i8, ptr %51, align 1, !tbaa !27
  %53 = zext i8 %52 to i32
  %54 = icmp eq i32 %53, 0
  br i1 %54, label %55, label %66

55:                                               ; preds = %39
  %56 = getelementptr inbounds nuw %"class.Luau::CodeGen::X64::IrCallWrapperX64", ptr %9, i32 0, i32 0
  %57 = load ptr, ptr %56, align 8, !tbaa !90
  call void @llvm.memcpy.p0.p0.i64(ptr align 1 %6, ptr align 1 %3, i64 1, i1 false), !tbaa.struct !26
  %58 = getelementptr inbounds nuw %"struct.Luau::CodeGen::X64::RegisterX64", ptr %6, i32 0, i32 0
  %59 = load i8, ptr %58, align 1
  %60 = call noundef zeroext i1 @_ZNK4Luau7CodeGen3X6413IrRegAllocX6413shouldFreeGprENS1_11RegisterX64E(ptr noundef nonnull align 8 dereferenceable(256) %57, i8 %59)
  br i1 %60, label %61, label %66

61:                                               ; preds = %55
  %62 = getelementptr inbounds nuw %"class.Luau::CodeGen::X64::IrCallWrapperX64", ptr %9, i32 0, i32 0
  %63 = load ptr, ptr %62, align 8, !tbaa !90
  call void @llvm.memcpy.p0.p0.i64(ptr align 1 %7, ptr align 1 %3, i64 1, i1 false), !tbaa.struct !26
  %64 = getelementptr inbounds nuw %"struct.Luau::CodeGen::X64::RegisterX64", ptr %7, i32 0, i32 0
  %65 = load i8, ptr %64, align 1
  call void @_ZN4Luau7CodeGen3X6413IrRegAllocX647freeRegENS1_11RegisterX64E(ptr noundef nonnull align 8 dereferenceable(256) %63, i8 %65)
  br label %66

66:                                               ; preds = %61, %55, %39
  br label %67

67:                                               ; preds = %66, %35
  br label %68

68:                                               ; preds = %67, %34
  ret void
}