; Function Attrs: mustprogress uwtable
define dso_local void @_ZN4Luau7CodeGen3X6416IrCallWrapperX6417removeRegisterUseENS1_11RegisterX64E(ptr noundef nonnull align 8 captures(none) dereferenceable(240) %0, i8 %1) local_unnamed_addr #4 align 2 {
  %3 = and i8 %1, 7
  switch i8 %3, label %12 [
    i8 5, label %4
    i8 0, label %24
  ]

4:                                                ; preds = %2
  %5 = getelementptr inbounds nuw i8, ptr %0, i64 224
  %6 = lshr i8 %1, 3
  %7 = zext nneg i8 %6 to i64
  %8 = getelementptr inbounds nuw [16 x i8], ptr %5, i64 0, i64 %7
  %9 = load i8, ptr %8, align 1, !tbaa !26
  %10 = add i8 %9, -1
  store i8 %10, ptr %8, align 1, !tbaa !26
  %11 = icmp eq i8 %10, 0
  br i1 %11, label %.sink.split, label %24

12:                                               ; preds = %2
  %13 = getelementptr inbounds nuw i8, ptr %0, i64 208
  %14 = lshr i8 %1, 3
  %15 = zext nneg i8 %14 to i64
  %16 = getelementptr inbounds nuw [16 x i8], ptr %13, i64 0, i64 %15
  %17 = load i8, ptr %16, align 1, !tbaa !26
  %18 = add i8 %17, -1
  store i8 %18, ptr %16, align 1, !tbaa !26
  %19 = icmp eq i8 %18, 0
  br i1 %19, label %20, label %24

20:                                               ; preds = %12
  %21 = load ptr, ptr %0, align 8, !tbaa !70
  %22 = tail call noundef zeroext i1 @_ZNK4Luau7CodeGen3X6413IrRegAllocX6413shouldFreeGprENS1_11RegisterX64E(ptr noundef nonnull align 8 dereferenceable(256) %21, i8 %1)
  br i1 %22, label %.sink.split, label %24

.sink.split:                                      ; preds = %20, %4
  %23 = load ptr, ptr %0, align 8, !tbaa !70
  tail call void @_ZN4Luau7CodeGen3X6413IrRegAllocX647freeRegENS1_11RegisterX64E(ptr noundef nonnull align 8 dereferenceable(256) %23, i8 %1)
  br label %24

24:                                               ; preds = %.sink.split, %2, %20, %12, %4
  ret void
}